Certificate:
    Data:
        Version: 3 (0x2)
        Serial Number: 0 (0x0)
    Signature Algorithm: sha1WithRSAEncryption
        Issuer: C=US, ST=Unset, L=Unset, O=Unset, CN=f88eb5a3059e
        Validity
            Not Before: Apr 17 21:34:36 2015 GMT
            Not After : Apr 14 21:34:36 2025 GMT
        Subject: C=US, ST=Unset, O=Unset, CN=keystone
        Subject Public Key Info:
            Public Key Algorithm: rsaEncryption
                Public-Key: (1024 bit)
                Modulus:
                    00:da:40:b1:e6:e0:47:48:94:f6:3d:2a:90:09:c3:
                    e7:32:f5:e3:4e:61:fa:d0:eb:cc:0d:b3:be:8a:90:
                    bd:33:2a:5b:5b:a0:f8:cd:22:a0:7d:5c:81:9a:67:
                    28:bb:9a:f0:8d:ce:ee:e3:4f:e7:d9:e6:b1:e6:39:
                    99:47:f1:ff:8b:86:12:ee:46:05:13:ba:34:c1:dd:
                    c7:07:ad:71:ab:50:db:8d:a0:16:8c:29:f1:c9:ca:
                    35:b3:15:12:54:5f:7f:f2:70:c6:ec:ab:19:5d:46:
                    6f:35:cf:a0:55:c5:de:35:4a:2f:7d:5f:a4:a9:94:
                    f1:0b:90:bb:f5:3c:1e:32:d3
                Exponent: 65537 (0x10001)
        X509v3 extensions:
            X509v3 Basic Constraints: 
                CA:FALSE
            X509v3 Subject Key Identifier: 
                56:04:9F:86:B6:F0:13:38:4B:72:8E:B4:02:77:92:AE:0C:13:3B:EA
            X509v3 Authority Key Identifier: 
                keyid:FC:1A:CC:38:BE:36:34:40:1E:28:E1:DA:EF:D6:B4:D1:AF:19:BB:BF

    Signature Algorithm: sha1WithRSAEncryption
         52:81:50:2d:4f:c0:3f:9c:1c:e6:e9:35:39:34:45:ca:23:e3:
         80:3b:d0:70:95:0a:e6:63:cf:f8:2b:89:d5:df:69:d6:b7:39:
         74:87:bb:25:f3:7e:a0:30:4b:09:f0:f5:32:75:6b:c4:69:03:
         7b:9e:b0:0f:04:8e:30:89:70:10:f0:21:2d:d6:5f:0f:24:8a:
         4b:50:e4:2a:a3:c0:49:d0:e6:dc:bd:f1:87:0f:41:d0:b8:a4:
         c0:7e:8d:01:28:85:76:fb:35:ec:81:f0:ca:23:88:ca:d5:b8:
         56:f5:ce:e8:81:0b:e9:bb:af:1c:b2:84:8c:31:30:4e:f0:4b:
         89:41:51:df:b4:3e:5b:e1:5e:57:9e:73:a5:5d:e3:d8:70:30:
         c8:b1:4a:18:e6:a7:bd:bb:b6:8c:98:21:67:7f:e5:8c:e5:91:
         c1:26:7e:84:33:c0:79:39:4a:30:f8:35:6c:e8:b6:36:12:e6:
         30:c1:fe:e0:33:26:2f:e7:30:ae:3c:bf:81:9f:13:0e:96:23:
         85:99:d4:cf:a8:ef:35:b7:77:b8:09:40:d1:c3:fc:9b:72:b6:
         97:b5:e3:cb:c4:44:34:37:da:7c:8e:e0:7a:6c:ba:43:da:ad:
         1f:d5:7c:de:81:55:5f:2f:e0:ec:98:bb:71:8b:4b:c2:5c:a0:
         0a:7f:23:04
-----BEGIN CERTIFICATE-----
MIIC2DCCAcCgAwIBAgIBADANBgkqhkiG9w0BAQUFADBUMQswCQYDVQQGEwJVUzEO
MAwGA1UECAwFVW5zZXQxDjAMBgNVBAcMBVVuc2V0MQ4wDAYDVQQKDAVVbnNldDEV
MBMGA1UEAwwMZjg4ZWI1YTMwNTllMB4XDTE1MDQxNzIxMzQzNloXDTI1MDQxNDIx
MzQzNlowQDELMAkGA1UEBhMCVVMxDjAMBgNVBAgMBVVuc2V0MQ4wDAYDVQQKDAVV
bnNldDERMA8GA1UEAwwIa2V5c3RvbmUwgZ8wDQYJKoZIhvcNAQEBBQADgY0AMIGJ
AoGBANpAsebgR0iU9j0qkAnD5zL1405h+tDrzA2zvoqQvTMqW1ug+M0ioH1cgZpn
KLua8I3O7uNP59nmseY5mUfx/4uGEu5GBRO6NMHdxwetcatQ242gFowp8cnKNbMV
ElRff/JwxuyrGV1GbzXPoFXF3jVKL31fpKmU8QuQu/U8HjLTAgMBAAGjTTBLMAkG
A1UdEwQCMAAwHQYDVR0OBBYEFFYEn4a28BM4S3KOtAJ3kq4MEzvqMB8GA1UdIwQY
MBaAFPwazDi+NjRAHijh2u/WtNGvGbu/MA0GCSqGSIb3DQEBBQUAA4IBAQBSgVAt
T8A/nBzm6TU5NEXKI+OAO9BwlQrmY8/4K4nV32nWtzl0h7sl836gMEsJ8PUydWvE
aQN7nrAPBI4wiXAQ8CEt1l8PJIpLUOQqo8BJ0ObcvfGHD0HQuKTAfo0BKIV2+zXs
gfDKI4jK1bhW9c7ogQvpu68csoSMMTBO8EuJQVHftD5b4V5XnnOlXePYcDDIsUoY
5qe9u7aMmCFnf+WM5ZHBJn6EM8B5OUow+DVs6LY2EuYwwf7gMyYv5zCuPL+BnxMO
liOFmdTPqO81t3e4CUDRw/ybcraXtePLxEQ0N9p8juB6bLpD2q0f1XzegVVfL+Ds
mLtxi0vCXKAKfyME
-----END CERTIFICATE-----
